; Function Attrs: nounwind uwtable
define internal noundef i32 @_control_discard_history_job_run(ptr noundef %0) #0 {
  %2 = alloca %struct.timeval, align 8
  %3 = alloca [512 x i8], align 16
  %4 = tail call ptr @dt_control_job_get_params(ptr noundef %0) #17
  %5 = getelementptr inbounds nuw i8, ptr %4, i64 16
  %6 = load ptr, ptr %5, align 8, !tbaa !52
  %7 = tail call i32 @g_list_length(ptr noundef %6) #17
  call void @llvm.lifetime.start.p0(i64 512, ptr nonnull %3) #17
  call void @llvm.memset.p0.i64(ptr noundef nonnull align 16 dereferenceable(512) %3, i8 0, i64 512, i1 false)
  %8 = zext i32 %7 to i64
  %9 = tail call ptr @dcngettext(ptr noundef null, ptr noundef nonnull @.str.149, ptr noundef nonnull @.str.150, i64 noundef %8, i32 noundef 5) #17
  %10 = call i32 (ptr, i64, ptr, ...) @snprintf(ptr noundef nonnull dereferenceable(1) %3, i64 noundef 512, ptr noundef %9, i32 noundef %7) #17
  call void @dt_control_job_set_progress_message(ptr noundef %0, ptr noundef nonnull %3) #17
  %11 = load ptr, ptr getelementptr inbounds nuw (i8, ptr @darktable, i64 208), align 8, !tbaa !87
  call void @dt_undo_start_group(ptr noundef %11, i32 noundef 128) #17
  %.not28 = icmp eq ptr %6, null
  br i1 %.not28, label %.critedge, label %.lr.ph

.lr.ph:                                           ; preds = %1
  %12 = uitofp i32 %7 to double
  %13 = fdiv reassoc nsz arcp contract afn double 1.000000e+00, %12
  %14 = getelementptr inbounds nuw i8, ptr %2, i64 8
  br label %15

15:                                               ; preds = %.lr.ph, %_update_progress.exit
  %.031 = phi ptr [ %6, %.lr.ph ], [ %48, %_update_progress.exit ]
  %.02030 = phi double [ 0.000000e+00, %.lr.ph ], [ %31, %_update_progress.exit ]
  %.02429 = phi double [ 0.000000e+00, %.lr.ph ], [ %.1, %_update_progress.exit ]
  %16 = call i32 @dt_control_job_get_state(ptr noundef %0) #17
  %.not26 = icmp eq i32 %16, 4
  br i1 %.not26, label %.critedge, label %17

17:                                               ; preds = %15
  %18 = load ptr, ptr %.031, align 8, !tbaa !61
  %19 = ptrtoint ptr %18 to i64
  %20 = trunc i64 %19 to i32
  %21 = call i32 @dt_control_job_is_synchronous(ptr noundef %0) #17
  %22 = icmp eq i32 %21, 0
  %23 = load ptr, ptr getelementptr inbounds nuw (i8, ptr @darktable, i64 64), align 8
  %24 = icmp ne ptr %23, null
  %or.cond.i = select i1 %22, i1 %24, i1 false
  br i1 %or.cond.i, label %_safe_history_job_on_imgid.exit, label %_safe_history_job_on_imgid.exit.thread

_safe_history_job_on_imgid.exit:                  ; preds = %17
  %25 = getelementptr inbounds nuw i8, ptr %23, i64 1544
  %26 = load i32, ptr %25, align 8, !tbaa !130
  %.not27 = icmp eq i32 %26, %20
  br i1 %.not27, label %28, label %_safe_history_job_on_imgid.exit.thread

_safe_history_job_on_imgid.exit.thread:           ; preds = %17, %_safe_history_job_on_imgid.exit
  %27 = call i32 @dt_history_delete(i32 noundef %20, i32 noundef 1) #17
  br label %30

28:                                               ; preds = %_safe_history_job_on_imgid.exit
  %29 = call ptr @dcgettext(ptr noundef null, ptr noundef nonnull @.str.151, i32 noundef 5) #17
  call void (ptr, ...) @dt_control_log(ptr noundef %29) #17
  br label %30

30:                                               ; preds = %28, %_safe_history_job_on_imgid.exit.thread
  %31 = fadd reassoc nsz arcp contract afn double %.02030, %13
  call void @llvm.lifetime.start.p0(i64 16, ptr nonnull %2) #17
  %32 = call i32 @gettimeofday(ptr noundef nonnull %2, ptr noundef null) #17
  %33 = load i64, ptr %2, align 8, !tbaa !88
  %34 = add nsw i64 %33, -1290608000
  %35 = sitofp i64 %34 to double
  %36 = load i64, ptr %14, align 8, !tbaa !90
  %37 = sitofp i64 %36 to double
  %38 = fmul reassoc nsz arcp contract afn double %37, 0x3EB0C6F7A0B5ED8D
  %39 = fadd reassoc nsz arcp contract afn double %38, %35
  call void @llvm.lifetime.end.p0(i64 16, ptr nonnull %2) #17
  %40 = fadd reassoc nsz arcp contract afn double %.02429, 5.000000e-01
  %41 = fcmp reassoc nsz arcp contract afn ogt double %39, %40
  br i1 %41, label %42, label %_update_progress.exit

42:                                               ; preds = %30
  %43 = fcmp reassoc nsz arcp contract afn ogt double %31, 1.000000e+00
  %44 = fcmp reassoc nsz arcp contract afn olt double %31, 0.000000e+00
  %45 = select reassoc nsz arcp contract afn i1 %44, double 0.000000e+00, double %31
  %46 = select reassoc nsz arcp contract afn i1 %43, double 1.000000e+00, double %45
  call void @dt_control_job_set_progress(ptr noundef %0, double noundef %46) #17
  br label %_update_progress.exit

_update_progress.exit:                            ; preds = %30, %42
  %.1 = phi nsz double [ %39, %42 ], [ %.02429, %30 ]
  %47 = getelementptr inbounds nuw i8, ptr %.031, i64 8
  %48 = load ptr, ptr %47, align 8, !tbaa !63
  %.not = icmp eq ptr %48, null
  br i1 %.not, label %.critedge, label %15

.critedge:                                        ; preds = %_update_progress.exit, %15, %1
  %49 = load i32, ptr getelementptr inbounds nuw (i8, ptr @darktable, i64 3128), align 8, !tbaa !76
  %50 = and i32 %49, 1
  %51 = icmp ne i32 %50, 0
  %52 = load i32, ptr getelementptr inbounds nuw (i8, ptr @darktable, i64 3168), align 8
  %53 = icmp ne i32 %52, 0
  %or.cond = select i1 %51, i1 %53, i1 false
  br i1 %or.cond, label %54, label %58

54:                                               ; preds = %.critedge
  %55 = load i32, ptr getelementptr inbounds nuw (i8, ptr @darktable, i64 8), align 8, !tbaa !77
  %56 = and i32 %55, 1048576
  %.not22 = icmp eq i32 %56, 0
  br i1 %.not22, label %58, label %57

57:                                               ; preds = %54
  call void (ptr, ...) @dt_print_ext(ptr noundef nonnull @.str.60, ptr noundef nonnull @.str.132, ptr noundef nonnull @.str.48, i32 noundef 1710, ptr noundef nonnull @__FUNCTION__._control_discard_history_job_run) #17
  br label %58

58:                                               ; preds = %54, %57, %.critedge
  %59 = load ptr, ptr getelementptr inbounds nuw (i8, ptr @darktable, i64 96), align 8, !tbaa !78
  call void (ptr, i32, ...) @dt_control_signal_raise(ptr noundef %59, i32 noundef 9) #17
  %60 = load ptr, ptr getelementptr inbounds nuw (i8, ptr @darktable, i64 208), align 8, !tbaa !87
  call void @dt_undo_end_group(ptr noundef %60) #17
  %61 = load ptr, ptr getelementptr inbounds nuw (i8, ptr @darktable, i64 160), align 8, !tbaa !75
  %62 = load ptr, ptr %5, align 8, !tbaa !52
  call void @dt_collection_update_query(ptr noundef %61, i32 noundef 3, i32 noundef 43, ptr noundef %62) #17
  store ptr null, ptr %5, align 8, !tbaa !52
  call void (...) @dt_control_queue_redraw_center() #17
  call void @llvm.lifetime.end.p0(i64 512, ptr nonnull %3) #17
  ret i32 0
}